(lp0
(dp1
S'unit_id'
p2
V112-04
p3
sS'jobid'
p4
I0
sS'unit_type'
p5
Vccd
p6
sS'job'
p7
Vflat_acq
p8
sS'version'
p9
Vv0
p10
sS'operator'
p11
Vhomer
p12
sa(dp13
g2
V112-04
p14
sg4
I1
sg5
Vccd
p15
sg7
Vflat_acq
p16
sg9
Vv0
p17
sg11
Vhomer
p18
sa(dp19
g2
V112-04
p20
sg4
I2
sg5
Vccd
p21
sg7
Vflat_acq
p22
sg9
Vv0
p23
sg11
Vhomer
p24
sa(dp25
g2
V112-04
p26
sg4
I3
sg5
Vccd
p27
sg7
Vflat_acq
p28
sg9
Vv0
p29
sg11
Vhomer
p30
sa(dp31
g2
V112-04
p32
sg4
I4
sg5
Vccd
p33
sg7
Vflat_acq
p34
sg9
Vv0
p35
sg11
Vhomer
p36
sa(dp37
g2
V112-04
p38
sg4
I5
sg5
Vccd
p39
sg7
Vflat_acq
p40
sg9
Vv0
p41
sg11
Vhomer
p42
sa(dp43
g2
V112-04
p44
sg4
I6
sg5
Vccd
p45
sg7
Vflat_acq
p46
sg9
Vv0
p47
sg11
Vhomer
p48
sa(dp49
g2
V112-04
p50
sg4
I7
sg5
Vccd
p51
sg7
Vflat_acq
p52
sg9
Vv0
p53
sg11
Vhomer
p54
sa(dp55
g2
V112-04
p56
sg4
I8
sg5
Vccd
p57
sg7
Vflat_acq
p58
sg9
Vv0
p59
sg11
Vhomer
p60
sa(dp61
g2
V112-04
p62
sg4
I9
sg5
Vccd
p63
sg7
Vflat_acq
p64
sg9
Vv0
p65
sg11
Vhomer
p66
sa(dp67
g2
V112-04
p68
sg4
I10
sg5
Vccd
p69
sg7
Vflat_acq
p70
sg9
Vv0
p71
sg11
Vhomer
p72
sa(dp73
S'unit_id'
p74
V123
p75
sS'jobid'
p76
I11
sS'unit_type'
p77
VCCD
p78
sS'job'
p79
VT03_flat
p80
sS'version'
p81
Vv0
p82
sS'operator'
p83
Vhomer
p84
sa(dp85
g74
V123
p86
sg76
I12
sg77
VCCD
p87
sg79
VT03_flat
p88
sg81
Vv0
p89
sg83
Vhomer
p90
sa(dp91
g74
V123
p92
sg76
I13
sg77
VCCD
p93
sg79
VT03_flat
p94
sg81
Vv0
p95
sg83
Vhomer
p96
sa(dp97
g74
V123
p98
sg76
I14
sg77
VCCD
p99
sg79
VT03_flat
p100
sg81
Vv0
p101
sg83
Vhomer
p102
sa(dp103
g74
V123
p104
sg76
I15
sg77
VCCD
p105
sg79
VT03_flat
p106
sg81
Vv0
p107
sg83
Vhomer
p108
sa(dp109
g74
V123
p110
sg76
I16
sg77
VCCD
p111
sg79
VT03_flat
p112
sg81
Vv0
p113
sg83
Vhomer
p114
sa(dp115
g74
V123
p116
sg76
I17
sg77
VCCD
p117
sg79
VT03_flat
p118
sg81
Vv0
p119
sg83
Vhomer
p120
sa(dp121
g74
V123
p122
sg76
I18
sg77
VCCD
p123
sg79
VT03_flat
p124
sg81
Vv0
p125
sg83
Vhomer
p126
sa(dp127
g74
V123
p128
sg76
I19
sg77
VCCD
p129
sg79
VT03_flat
p130
sg81
Vv0
p131
sg83
Vhomer
p132
sa(dp133
S'unit_id'
p134
V123
p135
sS'jobid'
p136
I20
sS'unit_type'
p137
VCCD
p138
sS'job'
p139
VTS3_flat
p140
sS'version'
p141
Vv2
p142
sS'operator'
p143
Vts3prod
p144
sa(dp145
g134
V123
p146
sg136
I21
sg137
VCCD
p147
sg139
VTS3_flat
p148
sg141
Vv2
p149
sg143
Vts3prod
p150
sa(dp151
g134
V123
p152
sg136
I22
sg137
VCCD
p153
sg139
VTS3_flat
p154
sg141
Vv2
p155
sg143
Vts3prod
p156
sa(dp157
g134
V123
p158
sg136
I23
sg137
VCCD
p159
sg139
VTS3_flat
p160
sg141
Vv2
p161
sg143
Vts3prod
p162
sa(dp163
g134
V123
p164
sg136
I24
sg137
VCCD
p165
sg139
VTS3_flat
p166
sg141
Vv2
p167
sg143
Vts3prod
p168
sa(dp169
g134
V123
p170
sg136
I25
sg137
VCCD
p171
sg139
VTS3_flat
p172
sg141
Vv2
p173
sg143
Vts3prod
p174
sa(dp175
g134
V123
p176
sg136
I26
sg137
VCCD
p177
sg139
VTS3_flat
p178
sg141
Vv2
p179
sg143
Vts3prod
p180
sa(dp181
g134
V123
p182
sg136
I27
sg137
VCCD
p183
sg139
VTS3_flat
p184
sg141
Vv2
p185
sg143
Vts3prod
p186
sa(dp187
g134
V123
p188
sg136
I28
sg137
VCCD
p189
sg139
VTS3_flat
p190
sg141
Vv2
p191
sg143
Vts3prod
p192
sa(dp193
g134
V123
p194
sg136
I29
sg137
VCCD
p195
sg139
VTS3_flat
p196
sg141
Vv2
p197
sg143
Vts3prod
p198
sa(dp199
g134
V123
p200
sg136
I30
sg137
VCCD
p201
sg139
VTS3_flat
p202
sg141
Vv2
p203
sg143
Vts3prod
p204
sa(dp205
g134
V123
p206
sg136
I31
sg137
VCCD
p207
sg139
VTS3_flat
p208
sg141
Vv2
p209
sg143
Vts3prod
p210
sa(dp211
g134
V123
p212
sg136
I32
sg137
VCCD
p213
sg139
VTS3_flat
p214
sg141
Vv2
p215
sg143
Vts3prod
p216
sa(dp217
g134
V123
p218
sg136
I33
sg137
VCCD
p219
sg139
VTS3_flat
p220
sg141
Vv2
p221
sg143
Vts3prod
p222
sa(dp223
g134
V123
p224
sg136
I34
sg137
VCCD
p225
sg139
VTS3_flat
p226
sg141
Vv2
p227
sg143
Vts3prod
p228
sa(dp229
g134
V123
p230
sg136
I35
sg137
VCCD
p231
sg139
VTS3_flat
p232
sg141
Vv2
p233
sg143
Vts3prod
p234
sa(dp235
g134
V123
p236
sg136
I36
sg137
VCCD
p237
sg139
VTS3_flat
p238
sg141
Vv2
p239
sg143
Vts3prod
p240
sa(dp241
g134
V123
p242
sg136
I37
sg137
VCCD
p243
sg139
VTS3_flat
p244
sg141
Vv2
p245
sg143
Vts3prod
p246
sa(dp247
g134
V123
p248
sg136
I38
sg137
VCCD
p249
sg139
VTS3_flat
p250
sg141
Vv2
p251
sg143
Vts3prod
p252
sa(dp253
g134
V123
p254
sg136
I39
sg137
VCCD
p255
sg139
VTS3_flat
p256
sg141
Vv2
p257
sg143
Vts3prod
p258
sa(dp259
g134
V123
p260
sg136
I40
sg137
VCCD
p261
sg139
VTS3_flat
p262
sg141
Vv2
p263
sg143
Vts3prod
p264
sa(dp265
g134
V123
p266
sg136
I41
sg137
VCCD
p267
sg139
VTS3_flat
p268
sg141
Vv2
p269
sg143
Vts3prod
p270
sa(dp271
g134
V123
p272
sg136
I42
sg137
VCCD
p273
sg139
VTS3_flat
p274
sg141
Vv2
p275
sg143
Vts3prod
p276
sa(dp277
g134
V123
p278
sg136
I43
sg137
VCCD
p279
sg139
VTS3_flat
p280
sg141
Vv2
p281
sg143
Vts3prod
p282
sa(dp283
g134
V123
p284
sg136
I44
sg137
VCCD
p285
sg139
VTS3_flat
p286
sg141
Vv2
p287
sg143
Vts3prod
p288
sa(dp289
g134
V123
p290
sg136
I45
sg137
VCCD
p291
sg139
VTS3_flat
p292
sg141
Vv2
p293
sg143
Vts3prod
p294
sa(dp295
g134
V123
p296
sg136
I46
sg137
VCCD
p297
sg139
VTS3_flat
p298
sg141
Vv2
p299
sg143
Vts3prod
p300
sa(dp301
g134
V123
p302
sg136
I47
sg137
VCCD
p303
sg139
VTS3_flat
p304
sg141
Vv2
p305
sg143
Vts3prod
p306
sa(dp307
g134
V123
p308
sg136
I48
sg137
VCCD
p309
sg139
VTS3_flat
p310
sg141
Vv2
p311
sg143
Vts3prod
p312
sa(dp313
g134
V123
p314
sg136
I49
sg137
VCCD
p315
sg139
VTS3_flat
p316
sg141
Vv2
p317
sg143
Vts3prod
p318
sa(dp319
g134
V123
p320
sg136
I50
sg137
VCCD
p321
sg139
VTS3_flat
p322
sg141
Vv2
p323
sg143
Vts3prod
p324
sa(dp325
g134
V123
p326
sg136
I51
sg137
VCCD
p327
sg139
VTS3_flat
p328
sg141
Vv2
p329
sg143
Vts3prod
p330
sa(dp331
g134
V123
p332
sg136
I52
sg137
VCCD
p333
sg139
VTS3_flat
p334
sg141
Vv2
p335
sg143
Vts3prod
p336
sa(dp337
g134
V123
p338
sg136
I53
sg137
VCCD
p339
sg139
VTS3_flat
p340
sg141
Vv2
p341
sg143
Vts3prod
p342
sa(dp343
g134
V123
p344
sg136
I54
sg137
VCCD
p345
sg139
VTS3_flat
p346
sg141
Vv2
p347
sg143
Vts3prod
p348
sa(dp349
g134
V123
p350
sg136
I55
sg137
VCCD
p351
sg139
VTS3_flat
p352
sg141
Vv2
p353
sg143
Vts3prod
p354
sa(dp355
g134
V123
p356
sg136
I56
sg137
VCCD
p357
sg139
VTS3_flat
p358
sg141
Vv2
p359
sg143
Vts3prod
p360
sa(dp361
g134
V123
p362
sg136
I57
sg137
VCCD
p363
sg139
VTS3_flat
p364
sg141
Vv2
p365
sg143
Vts3prod
p366
sa(dp367
g134
V123
p368
sg136
I58
sg137
VCCD
p369
sg139
VTS3_flat
p370
sg141
Vv2
p371
sg143
Vts3prod
p372
sa(dp373
g134
V123
p374
sg136
I59
sg137
VCCD
p375
sg139
VTS3_flat
p376
sg141
Vv2
p377
sg143
Vts3prod
p378
sa(dp379
g134
V123
p380
sg136
I60
sg137
VCCD
p381
sg139
VTS3_flat
p382
sg141
Vv2
p383
sg143
Vts3prod
p384
sa(dp385
g134
V123
p386
sg136
I61
sg137
VCCD
p387
sg139
VTS3_flat
p388
sg141
Vv2
p389
sg143
Vts3prod
p390
sa(dp391
g134
V123
p392
sg136
I62
sg137
VCCD
p393
sg139
VTS3_flat
p394
sg141
Vv2
p395
sg143
Vts3prod
p396
sa(dp397
g134
V123
p398
sg136
I63
sg137
VCCD
p399
sg139
VTS3_flat
p400
sg141
Vv2
p401
sg143
Vts3prod
p402
sa(dp403
g134
V123
p404
sg136
I64
sg137
VCCD
p405
sg139
VTS3_flat
p406
sg141
Vv2
p407
sg143
Vts3prod
p408
sa(dp409
g134
V123
p410
sg136
I65
sg137
VCCD
p411
sg139
VTS3_flat
p412
sg141
Vv2
p413
sg143
Vts3prod
p414
sa(dp415
g134
V123
p416
sg136
I66
sg137
VCCD
p417
sg139
VTS3_flat
p418
sg141
Vv2
p419
sg143
Vts3prod
p420
sa(dp421
g134
V123
p422
sg136
I67
sg137
VCCD
p423
sg139
VTS3_flat
p424
sg141
Vv2
p425
sg143
Vts3prod
p426
sa(dp427
g134
V123
p428
sg136
I68
sg137
VCCD
p429
sg139
VTS3_flat
p430
sg141
Vv2
p431
sg143
Vts3prod
p432
sa(dp433
g134
V123
p434
sg136
I69
sg137
VCCD
p435
sg139
VTS3_flat
p436
sg141
Vv2
p437
sg143
Vts3prod
p438
sa(dp439
g134
V123
p440
sg136
I70
sg137
VCCD
p441
sg139
VTS3_flat
p442
sg141
Vv2
p443
sg143
Vts3prod
p444
sa(dp445
g134
V123
p446
sg136
I71
sg137
VCCD
p447
sg139
VTS3_flat
p448
sg141
Vv2
p449
sg143
Vts3prod
p450
sa(dp451
g134
V123
p452
sg136
I72
sg137
VCCD
p453
sg139
VTS3_flat
p454
sg141
Vv2
p455
sg143
Vts3prod
p456
sa(dp457
g134
V123
p458
sg136
I73
sg137
VCCD
p459
sg139
VTS3_flat
p460
sg141
Vv2
p461
sg143
Vts3prod
p462
sa(dp463
g134
V123
p464
sg136
I74
sg137
VCCD
p465
sg139
VTS3_flat
p466
sg141
Vv2
p467
sg143
Vts3prod
p468
sa(dp469
g134
V123
p470
sg136
I75
sg137
VCCD
p471
sg139
VTS3_flat
p472
sg141
Vv2
p473
sg143
Vts3prod
p474
sa(dp475
g134
V123
p476
sg136
I76
sg137
VCCD
p477
sg139
VTS3_flat
p478
sg141
Vv2
p479
sg143
Vts3prod
p480
sa(dp481
g134
V123
p482
sg136
I77
sg137
VCCD
p483
sg139
VTS3_flat
p484
sg141
Vv2
p485
sg143
Vts3prod
p486
sa(dp487
g134
V123
p488
sg136
I78
sg137
VCCD
p489
sg139
VTS3_flat
p490
sg141
Vv2
p491
sg143
Vts3prod
p492
sa(dp493
S'unit_id'
p494
V123
p495
sS'jobid'
p496
I79
sS'unit_type'
p497
VCCD
p498
sS'job'
p499
VTS3_flat
p500
sS'version'
p501
Vv2
p502
sS'operator'
p503
Vts3prod
p504
sa(dp505
S'unit_id'
p506
V123
p507
sS'jobid'
p508
I80
sS'unit_type'
p509
VCCD
p510
sS'job'
p511
VTS3_flat
p512
sS'version'
p513
Vv2
p514
sS'operator'
p515
Vts3prod
p516
sa(dp517
g506
V123
p518
sg508
I81
sg509
VCCD
p519
sg511
VTS3_flat
p520
sg513
Vv2
p521
sg515
Vts3prod
p522
sa(dp523
g506
V123
p524
sg508
I82
sg509
VCCD
p525
sg511
VTS3_flat
p526
sg513
Vv2
p527
sg515
Vts3prod
p528
sa(dp529
g506
V123
p530
sg508
I83
sg509
VCCD
p531
sg511
VTS3_flat
p532
sg513
Vv2
p533
sg515
Vts3prod
p534
sa(dp535
g506
V123
p536
sg508
I84
sg509
VCCD
p537
sg511
VTS3_flat
p538
sg513
Vv2
p539
sg515
Vts3prod
p540
sa(dp541
g506
V123
p542
sg508
I85
sg509
VCCD
p543
sg511
VTS3_flat
p544
sg513
Vv2
p545
sg515
Vts3prod
p546
sa(dp547
g506
V123
p548
sg508
I86
sg509
VCCD
p549
sg511
VTS3_flat
p550
sg513
Vv2
p551
sg515
Vts3prod
p552
sa(dp553
g506
V123
p554
sg508
I87
sg509
VCCD
p555
sg511
VTS3_flat
p556
sg513
Vv2
p557
sg515
Vts3prod
p558
sa(dp559
S'unit_id'
p560
V123
p561
sS'jobid'
p562
I88
sS'unit_type'
p563
VCCD
p564
sS'job'
p565
VTS3_flat
p566
sS'version'
p567
Vv2
p568
sS'operator'
p569
Vts3prod
p570
sa(dp571
g560
V123
p572
sg562
I89
sg563
VCCD
p573
sg565
VTS3_flat
p574
sg567
Vv2
p575
sg569
Vts3prod
p576
sa(dp577
g560
V123
p578
sg562
I90
sg563
VCCD
p579
sg565
VTS3_flat
p580
sg567
Vv2
p581
sg569
Vts3prod
p582
sa(dp583
g560
V123
p584
sg562
I91
sg563
VCCD
p585
sg565
VTS3_flat
p586
sg567
Vv2
p587
sg569
Vts3prod
p588
sa(dp589
g560
V123
p590
sg562
I92
sg563
VCCD
p591
sg565
VTS3_flat
p592
sg567
Vv3
p593
sg569
Vts3prod
p594
sa(dp595
g560
V123
p596
sg562
I93
sg563
VCCD
p597
sg565
VTS3_flat
p598
sg567
Vv3
p599
sg569
Vts3prod
p600
sa(dp601
g560
V123
p602
sg562
I94
sg563
VCCD
p603
sg565
VTS3_flat
p604
sg567
Vv3
p605
sg569
Vts3prod
p606
sa(dp607
g560
V123
p608
sg562
I95
sg563
VCCD
p609
sg565
VTS3_flat
p610
sg567
Vv3
p611
sg569
Vts3prod
p612
sa(dp613
g560
V123
p614
sg562
I96
sg563
VCCD
p615
sg565
VTS3_flat
p616
sg567
Vv3
p617
sg569
Vts3prod
p618
sa(dp619
g560
V123
p620
sg562
I97
sg563
VCCD
p621
sg565
VTS3_flat
p622
sg567
Vv3
p623
sg569
Vts3prod
p624
sa(dp625
S'unit_type'
p626
VCCD
p627
sS'job'
p628
VTS3_flat
p629
sS'version'
p630
Vv3
p631
sS'operator'
p632
Vts3prod
p633
sS'unit_id'
p634
V123
p635
sS'jobid'
p636
I98
sa.