(lp0
(dp1
S'unit_type'
p2
Vccd
p3
sS'job'
p4
Vflat_acq
p5
sS'version'
p6
Vv0
p7
sS'operator'
p8
Vhomer
p9
sS'unit_id'
p10
V112-04
p11
sS'jobid'
p12
I0
sa(dp13
g2
Vccd
p14
sg4
Vflat_acq
p15
sg6
Vv0
p16
sg8
Vhomer
p17
sg10
V112-04
p18
sg12
I1
sa(dp19
g2
Vccd
p20
sg4
Vflat_acq
p21
sg6
Vv0
p22
sg8
Vhomer
p23
sg10
V112-04
p24
sg12
I2
sa(dp25
g2
Vccd
p26
sg4
Vflat_acq
p27
sg6
Vv0
p28
sg8
Vhomer
p29
sg10
V112-04
p30
sg12
I3
sa(dp31
g2
Vccd
p32
sg4
Vflat_acq
p33
sg6
Vv0
p34
sg8
Vhomer
p35
sg10
V112-04
p36
sg12
I4
sa(dp37
g2
Vccd
p38
sg4
Vflat_acq
p39
sg6
Vv0
p40
sg8
Vhomer
p41
sg10
V112-04
p42
sg12
I5
sa(dp43
g2
Vccd
p44
sg4
Vflat_acq
p45
sg6
Vv0
p46
sg8
Vhomer
p47
sg10
V112-04
p48
sg12
I6
sa(dp49
g2
Vccd
p50
sg4
Vflat_acq
p51
sg6
Vv0
p52
sg8
Vhomer
p53
sg10
V112-04
p54
sg12
I7
sa(dp55
g2
Vccd
p56
sg4
Vflat_acq
p57
sg6
Vv0
p58
sg8
Vhomer
p59
sg10
V112-04
p60
sg12
I8
sa(dp61
g2
Vccd
p62
sg4
Vflat_acq
p63
sg6
Vv0
p64
sg8
Vhomer
p65
sg10
V112-04
p66
sg12
I9
sa(dp67
g2
Vccd
p68
sg4
Vflat_acq
p69
sg6
Vv0
p70
sg8
Vhomer
p71
sg10
V112-04
p72
sg12
I10
sa.